target datalayout = "e-m:e-p270:32:32-p271:32:32-p272:64:64-i64:64-i128:128-f80:128-n8:16:32:64-S128"
target triple = "x86_64-pc-linux-gnu"

%"struct.Imf_3_4::DeepTiledOutputFile::Data" = type <{ %"class.Imf_3_4::Header", i32, i8, [3 x i8], %"class.Imf_3_4::TileDescription", %"class.Imf_3_4::DeepFrameBuffer", i64, i32, i32, i32, i32, i32, i32, i32, [4 x i8], ptr, ptr, %"class.Imf_3_4::TileOffsets", i32, [4 x i8], %"class.std::vector.11", %"class.std::vector.16", i64, %"class.std::map.21", %"struct.Imf_3_4::(anonymous namespace)::TileCoord", i32, [4 x i8], ptr, i32, i32, i32, i32, i64, ptr, i8, [7 x i8] }>
%"class.Imf_3_4::Header" = type <{ %"class.std::map", i8, [7 x i8] }>
%"class.std::map" = type { %"class.std::_Rb_tree" }
%"class.std::_Rb_tree" = type { %"struct.std::_Rb_tree<Imf_3_4::Name, std::pair<const Imf_3_4::Name, Imf_3_4::Attribute *>, std::_Select1st<std::pair<const Imf_3_4::Name, Imf_3_4::Attribute *>>, std::less<Imf_3_4::Name>>::_Rb_tree_impl" }
%"struct.std::_Rb_tree<Imf_3_4::Name, std::pair<const Imf_3_4::Name, Imf_3_4::Attribute *>, std::_Select1st<std::pair<const Imf_3_4::Name, Imf_3_4::Attribute *>>, std::less<Imf_3_4::Name>>::_Rb_tree_impl" = type { [8 x i8], %"struct.std::_Rb_tree_header" }
%"struct.std::_Rb_tree_header" = type { %"struct.std::_Rb_tree_node_base", i64 }
%"struct.std::_Rb_tree_node_base" = type { i32, ptr, ptr, ptr }
%"class.Imf_3_4::TileDescription" = type { i32, i32, i32, i32 }
%"class.Imf_3_4::DeepFrameBuffer" = type { %"class.std::map.3", %"struct.Imf_3_4::Slice" }
%"class.std::map.3" = type { %"class.std::_Rb_tree.4" }
%"class.std::_Rb_tree.4" = type { %"struct.std::_Rb_tree<Imf_3_4::Name, std::pair<const Imf_3_4::Name, Imf_3_4::DeepSlice>, std::_Select1st<std::pair<const Imf_3_4::Name, Imf_3_4::DeepSlice>>, std::less<Imf_3_4::Name>>::_Rb_tree_impl" }
%"struct.std::_Rb_tree<Imf_3_4::Name, std::pair<const Imf_3_4::Name, Imf_3_4::DeepSlice>, std::_Select1st<std::pair<const Imf_3_4::Name, Imf_3_4::DeepSlice>>, std::less<Imf_3_4::Name>>::_Rb_tree_impl" = type { [8 x i8], %"struct.std::_Rb_tree_header" }
%"struct.Imf_3_4::Slice" = type <{ i32, [4 x i8], ptr, i64, i64, i32, i32, double, i8, i8, [6 x i8] }>
%"class.Imf_3_4::TileOffsets" = type { i32, i32, i32, %"class.std::vector" }
%"class.std::vector" = type { %"struct.std::_Vector_base" }
%"struct.std::_Vector_base" = type { %"struct.std::_Vector_base<std::vector<std::vector<unsigned long>>, std::allocator<std::vector<std::vector<unsigned long>>>>::_Vector_impl" }
%"struct.std::_Vector_base<std::vector<std::vector<unsigned long>>, std::allocator<std::vector<std::vector<unsigned long>>>>::_Vector_impl" = type { %"struct.std::_Vector_base<std::vector<std::vector<unsigned long>>, std::allocator<std::vector<std::vector<unsigned long>>>>::_Vector_impl_data" }
%"struct.std::_Vector_base<std::vector<std::vector<unsigned long>>, std::allocator<std::vector<std::vector<unsigned long>>>>::_Vector_impl_data" = type { ptr, ptr, ptr }
%"class.std::vector.11" = type { %"struct.std::_Vector_base.12" }
%"struct.std::_Vector_base.12" = type { %"struct.std::_Vector_base<Imf_3_4::(anonymous namespace)::TOutSliceInfo *, std::allocator<Imf_3_4::(anonymous namespace)::TOutSliceInfo *>>::_Vector_impl" }
%"struct.std::_Vector_base<Imf_3_4::(anonymous namespace)::TOutSliceInfo *, std::allocator<Imf_3_4::(anonymous namespace)::TOutSliceInfo *>>::_Vector_impl" = type { %"struct.std::_Vector_base<Imf_3_4::(anonymous namespace)::TOutSliceInfo *, std::allocator<Imf_3_4::(anonymous namespace)::TOutSliceInfo *>>::_Vector_impl_data" }
%"struct.std::_Vector_base<Imf_3_4::(anonymous namespace)::TOutSliceInfo *, std::allocator<Imf_3_4::(anonymous namespace)::TOutSliceInfo *>>::_Vector_impl_data" = type { ptr, ptr, ptr }
%"class.std::vector.16" = type { %"struct.std::_Vector_base.17" }
%"struct.std::_Vector_base.17" = type { %"struct.std::_Vector_base<Imf_3_4::(anonymous namespace)::TileBuffer *, std::allocator<Imf_3_4::(anonymous namespace)::TileBuffer *>>::_Vector_impl" }
%"struct.std::_Vector_base<Imf_3_4::(anonymous namespace)::TileBuffer *, std::allocator<Imf_3_4::(anonymous namespace)::TileBuffer *>>::_Vector_impl" = type { %"struct.std::_Vector_base<Imf_3_4::(anonymous namespace)::TileBuffer *, std::allocator<Imf_3_4::(anonymous namespace)::TileBuffer *>>::_Vector_impl_data" }
%"struct.std::_Vector_base<Imf_3_4::(anonymous namespace)::TileBuffer *, std::allocator<Imf_3_4::(anonymous namespace)::TileBuffer *>>::_Vector_impl_data" = type { ptr, ptr, ptr }
%"class.std::map.21" = type { %"class.std::_Rb_tree.22" }
%"class.std::_Rb_tree.22" = type { %"struct.std::_Rb_tree<Imf_3_4::(anonymous namespace)::TileCoord, std::pair<const Imf_3_4::(anonymous namespace)::TileCoord, Imf_3_4::(anonymous namespace)::BufferedTile *>, std::_Select1st<std::pair<const Imf_3_4::(anonymous namespace)::TileCoord, Imf_3_4::(anonymous namespace)::BufferedTile *>>, std::less<Imf_3_4::(anonymous namespace)::TileCoord>>::_Rb_tree_impl" }
%"struct.std::_Rb_tree<Imf_3_4::(anonymous namespace)::TileCoord, std::pair<const Imf_3_4::(anonymous namespace)::TileCoord, Imf_3_4::(anonymous namespace)::BufferedTile *>, std::_Select1st<std::pair<const Imf_3_4::(anonymous namespace)::TileCoord, Imf_3_4::(anonymous namespace)::BufferedTile *>>, std::less<Imf_3_4::(anonymous namespace)::TileCoord>>::_Rb_tree_impl" = type { [8 x i8], %"struct.std::_Rb_tree_header" }
%"struct.Imf_3_4::(anonymous namespace)::TileCoord" = type { i32, i32, i32, i32 }

; Function Attrs: inlinehint mustprogress nounwind uwtable
define linkonce_odr hidden noundef nonnull align 4 dereferenceable(4) ptr @_ZN7Imf_3_411sampleCountEPciiii(ptr noundef %0, i32 noundef %1, i32 noundef %2, i32 noundef %3, i32 noundef %4) #7 comdat {
  %6 = alloca ptr, align 8
  %7 = alloca i32, align 4
  %8 = alloca i32, align 4
  %9 = alloca i32, align 4
  %10 = alloca i32, align 4
  %11 = alloca ptr, align 8
  %12 = alloca ptr, align 8
  store ptr %0, ptr %6, align 8, !tbaa !10
  store i32 %1, ptr %7, align 4, !tbaa !14
  store i32 %2, ptr %8, align 4, !tbaa !14
  store i32 %3, ptr %9, align 4, !tbaa !14
  store i32 %4, ptr %10, align 4, !tbaa !14
  call void @llvm.lifetime.start.p0(i64 8, ptr %11) #3
  %13 = load ptr, ptr %6, align 8, !tbaa !10
  %14 = load i32, ptr %10, align 4, !tbaa !14
  %15 = sext i32 %14 to i64
  %16 = load i32, ptr %8, align 4, !tbaa !14
  %17 = sext i32 %16 to i64
  %18 = mul nsw i64 %15, %17
  %19 = getelementptr inbounds i8, ptr %13, i64 %18
  %20 = load i32, ptr %9, align 4, !tbaa !14
  %21 = sext i32 %20 to i64
  %22 = load i32, ptr %7, align 4, !tbaa !14
  %23 = sext i32 %22 to i64
  %24 = mul nsw i64 %21, %23
  %25 = getelementptr inbounds i8, ptr %19, i64 %24
  store ptr %25, ptr %11, align 8, !tbaa !10
  call void @llvm.lifetime.start.p0(i64 8, ptr %12) #3
  %26 = load ptr, ptr %11, align 8, !tbaa !10
  store ptr %26, ptr %12, align 8, !tbaa !107
  %27 = load ptr, ptr %12, align 8, !tbaa !107
  call void @llvm.lifetime.end.p0(i64 8, ptr %12) #3
  call void @llvm.lifetime.end.p0(i64 8, ptr %11) #3
  ret ptr %27
}

; Function Attrs: mustprogress uwtable
define noundef nonnull align 4 dereferenceable(4) ptr @_ZN7Imf_3_419DeepTiledOutputFile4Data14getSampleCountEii(ptr noundef nonnull align 8 dereferenceable(457) %0, i32 noundef %1, i32 noundef %2) #6 align 2 {
  %4 = alloca ptr, align 8
  %5 = alloca i32, align 4
  %6 = alloca i32, align 4
  store ptr %0, ptr %4, align 8, !tbaa !12
  store i32 %1, ptr %5, align 4, !tbaa !14
  store i32 %2, ptr %6, align 4, !tbaa !14
  %7 = load ptr, ptr %4, align 8
  %8 = getelementptr inbounds nuw %"struct.Imf_3_4::DeepTiledOutputFile::Data", ptr %7, i32 0, i32 27
  %9 = load ptr, ptr %8, align 8, !tbaa !139
  %10 = getelementptr inbounds nuw %"struct.Imf_3_4::DeepTiledOutputFile::Data", ptr %7, i32 0, i32 28
  %11 = load i32, ptr %10, align 8, !tbaa !140
  %12 = getelementptr inbounds nuw %"struct.Imf_3_4::DeepTiledOutputFile::Data", ptr %7, i32 0, i32 29
  %13 = load i32, ptr %12, align 4, !tbaa !141
  %14 = load i32, ptr %5, align 4, !tbaa !14
  %15 = load i32, ptr %6, align 4, !tbaa !14
  %16 = call noundef nonnull align 4 dereferenceable(4) ptr @_ZN7Imf_3_411sampleCountEPciiii(ptr noundef %9, i32 noundef %11, i32 noundef %13, i32 noundef %14, i32 noundef %15)
  ret ptr %16
}