; Function Attrs: mustprogress nofree norecurse nosync nounwind willreturn memory(argmem: read) uwtable
define noundef nonnull align 4 dereferenceable(4) ptr @_ZN7Imf_3_419DeepTiledOutputFile4Data14getSampleCountEii(ptr noundef nonnull readonly align 8 captures(none) dereferenceable(457) %0, i32 noundef %1, i32 noundef %2) local_unnamed_addr #8 align 2 {
  %4 = getelementptr inbounds nuw i8, ptr %0, i64 416
  %5 = load ptr, ptr %4, align 8, !tbaa !123
  %6 = getelementptr inbounds nuw i8, ptr %0, i64 424
  %7 = load i32, ptr %6, align 8, !tbaa !124
  %8 = getelementptr inbounds nuw i8, ptr %0, i64 428
  %9 = load i32, ptr %8, align 4, !tbaa !125
  %10 = sext i32 %2 to i64
  %11 = sext i32 %9 to i64
  %12 = mul nsw i64 %11, %10
  %13 = getelementptr inbounds i8, ptr %5, i64 %12
  %14 = sext i32 %1 to i64
  %15 = sext i32 %7 to i64
  %16 = mul nsw i64 %15, %14
  %17 = getelementptr inbounds i8, ptr %13, i64 %16
  ret ptr %17
}